target datalayout = "e-m:e-p270:32:32-p271:32:32-p272:64:64-i64:64-i128:128-f80:128-n8:16:32:64-S128"
target triple = "x86_64-pc-linux-gnu"

%struct.expert_field = type { i32, i32 }

@hf_cigi3_image_generator_message_id = internal global i32 0, align 4
@hf_cigi3_image_generator_message_message = internal global i32 0, align 4
@ei_cigi_invalid_len = internal global %struct.expert_field zeroinitializer, align 4
@cigi_byte_order = internal global i32 0, align 4
@.str.2893 = private unnamed_addr constant [46 x i8] c"Insufficient room for image generator message\00", align 1

; Function Attrs: null_pointer_is_valid sspstrong uwtable
define internal i32 @cigi3_add_image_generator_message(ptr noundef %0, ptr noundef %1, ptr noundef %2, ptr noundef %3) #0 {
  %5 = alloca ptr, align 8
  %6 = alloca ptr, align 8
  %7 = alloca ptr, align 8
  %8 = alloca ptr, align 8
  %9 = alloca i32, align 4
  store ptr %0, ptr %5, align 8
  store ptr %1, ptr %6, align 8
  store ptr %2, ptr %7, align 8
  store ptr %3, ptr %8, align 8
  call void @llvm.lifetime.start.p0(i64 4, ptr %9) #5
  store i32 0, ptr %9, align 4
  %10 = load ptr, ptr %7, align 8
  %11 = load i32, ptr @hf_cigi3_image_generator_message_id, align 4
  %12 = load ptr, ptr %5, align 8
  %13 = load i32, ptr %9, align 4
  %14 = load i32, ptr @cigi_byte_order, align 4
  %15 = call ptr @proto_tree_add_item(ptr noundef %10, i32 noundef %11, ptr noundef %12, i32 noundef %13, i32 noundef 2, i32 noundef %14)
  %16 = load i32, ptr %9, align 4
  %17 = add i32 %16, 2
  store i32 %17, ptr %9, align 4
  %18 = load ptr, ptr %5, align 8
  %19 = load i32, ptr %9, align 4
  %20 = call i32 @tvb_reported_length_remaining(ptr noundef %18, i32 noundef %19)
  %21 = icmp slt i32 %20, 2
  br i1 %21, label %22, label %29

22:                                               ; preds = %4
  %23 = load ptr, ptr %7, align 8
  %24 = load ptr, ptr %6, align 8
  %25 = load ptr, ptr %5, align 8
  %26 = load ptr, ptr %5, align 8
  %27 = call i32 @tvb_reported_length(ptr noundef %26)
  %28 = call ptr (ptr, ptr, ptr, ptr, i32, i32, ptr, ...) @proto_tree_add_expert_format(ptr noundef %23, ptr noundef %24, ptr noundef @ei_cigi_invalid_len, ptr noundef %25, i32 noundef 0, i32 noundef %27, ptr noundef @.str.2893)
  br label %39

29:                                               ; preds = %4
  %30 = load ptr, ptr %7, align 8
  %31 = load i32, ptr @hf_cigi3_image_generator_message_message, align 4
  %32 = load ptr, ptr %5, align 8
  %33 = load i32, ptr %9, align 4
  %34 = load ptr, ptr %5, align 8
  %35 = load i32, ptr %9, align 4
  %36 = call i32 @tvb_reported_length_remaining(ptr noundef %34, i32 noundef %35)
  %37 = load i32, ptr @cigi_byte_order, align 4
  %38 = call ptr @proto_tree_add_item(ptr noundef %30, i32 noundef %31, ptr noundef %32, i32 noundef %33, i32 noundef %36, i32 noundef %37)
  br label %39

39:                                               ; preds = %29, %22
  %40 = load ptr, ptr %5, align 8
  %41 = call i32 @tvb_reported_length(ptr noundef %40)
  call void @llvm.lifetime.end.p0(i64 4, ptr %9) #5
  ret i32 %41
}