; Function Attrs: null_pointer_is_valid sspstrong uwtable
define internal i32 @cigi3_add_image_generator_message(ptr noundef %0, ptr noundef %1, ptr noundef %2, ptr readnone captures(none) %3) #0 {
  %5 = load i32, ptr @hf_cigi3_image_generator_message_id, align 4
  %.b15 = load i1, ptr @cigi_byte_order, align 4
  %6 = select i1 %.b15, i32 -2147483648, i32 0
  %7 = tail call ptr @proto_tree_add_item(ptr noundef %2, i32 noundef %5, ptr noundef %0, i32 noundef 0, i32 noundef 2, i32 noundef %6)
  %8 = tail call i32 @tvb_reported_length_remaining(ptr noundef %0, i32 noundef 2)
  %9 = icmp slt i32 %8, 2
  br i1 %9, label %10, label %13

10:                                               ; preds = %4
  %11 = tail call i32 @tvb_reported_length(ptr noundef %0)
  %12 = tail call ptr (ptr, ptr, ptr, ptr, i32, i32, ptr, ...) @proto_tree_add_expert_format(ptr noundef %2, ptr noundef %1, ptr noundef nonnull @ei_cigi_invalid_len, ptr noundef %0, i32 noundef 0, i32 noundef %11, ptr noundef nonnull @.str.2893)
  br label %18

13:                                               ; preds = %4
  %14 = load i32, ptr @hf_cigi3_image_generator_message_message, align 4
  %15 = tail call i32 @tvb_reported_length_remaining(ptr noundef %0, i32 noundef 2)
  %.b = load i1, ptr @cigi_byte_order, align 4
  %16 = select i1 %.b, i32 -2147483648, i32 0
  %17 = tail call ptr @proto_tree_add_item(ptr noundef %2, i32 noundef %14, ptr noundef %0, i32 noundef 2, i32 noundef %15, i32 noundef %16)
  br label %18

18:                                               ; preds = %13, %10
  %19 = tail call i32 @tvb_reported_length(ptr noundef %0)
  ret i32 %19
}